target datalayout = "e-m:e-p270:32:32-p271:32:32-p272:64:64-i64:64-i128:128-f80:128-n8:16:32:64-S128"
target triple = "x86_64-pc-linux-gnu"

%struct.VP8LHistogram = type { ptr, [256 x i32], [256 x i32], [256 x i32], [40 x i32], i32, i32, i64, i64, i64, i64, [5 x i8] }
%struct.VP8LHistogramSet = type { i32, i32, ptr }

; Function Attrs: inlinehint nounwind uwtable
define internal i32 @VP8LHistogramNumCodes(i32 noundef %0) #3 {
  %2 = alloca i32, align 4
  store i32 %0, ptr %2, align 4, !tbaa !14
  %3 = load i32, ptr %2, align 4, !tbaa !14
  %4 = icmp sgt i32 %3, 0
  br i1 %4, label %5, label %8

5:                                                ; preds = %1
  %6 = load i32, ptr %2, align 4, !tbaa !14
  %7 = shl i32 1, %6
  br label %9

8:                                                ; preds = %1
  br label %9

9:                                                ; preds = %8, %5
  %10 = phi i32 [ %7, %5 ], [ 0, %8 ]
  %11 = add nsw i32 280, %10
  ret i32 %11
}

; Function Attrs: nounwind uwtable
define internal void @HistogramClear(ptr noundef %0) #0 {
  %2 = alloca ptr, align 8
  %3 = alloca ptr, align 8
  %4 = alloca i32, align 4
  %5 = alloca i32, align 4
  store ptr %0, ptr %2, align 8, !tbaa !3
  call void @llvm.lifetime.start.p0(i64 8, ptr %3) #7
  %6 = load ptr, ptr %2, align 8, !tbaa !3
  %7 = getelementptr inbounds nuw %struct.VP8LHistogram, ptr %6, i32 0, i32 0
  %8 = load ptr, ptr %7, align 8, !tbaa !16
  store ptr %8, ptr %3, align 8, !tbaa !22
  call void @llvm.lifetime.start.p0(i64 4, ptr %4) #7
  %9 = load ptr, ptr %2, align 8, !tbaa !3
  %10 = getelementptr inbounds nuw %struct.VP8LHistogram, ptr %9, i32 0, i32 5
  %11 = load i32, ptr %10, align 8, !tbaa !21
  store i32 %11, ptr %4, align 4, !tbaa !14
  call void @llvm.lifetime.start.p0(i64 4, ptr %5) #7
  %12 = load i32, ptr %4, align 4, !tbaa !14
  %13 = call i32 @GetHistogramSize(i32 noundef %12)
  store i32 %13, ptr %5, align 4, !tbaa !14
  %14 = load ptr, ptr %2, align 8, !tbaa !3
  %15 = load i32, ptr %5, align 4, !tbaa !14
  %16 = sext i32 %15 to i64
  call void @llvm.memset.p0.i64(ptr align 8 %14, i8 0, i64 %16, i1 false)
  %17 = load i32, ptr %4, align 4, !tbaa !14
  %18 = load ptr, ptr %2, align 8, !tbaa !3
  %19 = getelementptr inbounds nuw %struct.VP8LHistogram, ptr %18, i32 0, i32 5
  store i32 %17, ptr %19, align 8, !tbaa !21
  %20 = load ptr, ptr %3, align 8, !tbaa !22
  %21 = load ptr, ptr %2, align 8, !tbaa !3
  %22 = getelementptr inbounds nuw %struct.VP8LHistogram, ptr %21, i32 0, i32 0
  store ptr %20, ptr %22, align 8, !tbaa !16
  call void @llvm.lifetime.end.p0(i64 4, ptr %5) #7
  call void @llvm.lifetime.end.p0(i64 4, ptr %4) #7
  call void @llvm.lifetime.end.p0(i64 8, ptr %3) #7
  ret void
}

; Function Attrs: nounwind uwtable
define internal i32 @GetHistogramSize(i32 noundef %0) #0 {
  %2 = alloca i32, align 4
  %3 = alloca i32, align 4
  %4 = alloca i64, align 8
  store i32 %0, ptr %2, align 4, !tbaa !14
  call void @llvm.lifetime.start.p0(i64 4, ptr %3) #7
  %5 = load i32, ptr %2, align 4, !tbaa !14
  %6 = call i32 @VP8LHistogramNumCodes(i32 noundef %5)
  store i32 %6, ptr %3, align 4, !tbaa !14
  call void @llvm.lifetime.start.p0(i64 8, ptr %4) #7
  %7 = load i32, ptr %3, align 4, !tbaa !14
  %8 = sext i32 %7 to i64
  %9 = mul i64 4, %8
  %10 = add i64 3288, %9
  store i64 %10, ptr %4, align 8, !tbaa !30
  %11 = load i64, ptr %4, align 8, !tbaa !30
  %12 = trunc i64 %11 to i32
  call void @llvm.lifetime.end.p0(i64 8, ptr %4) #7
  call void @llvm.lifetime.end.p0(i64 4, ptr %3) #7
  ret i32 %12
}

; Function Attrs: nounwind uwtable
define hidden void @VP8LHistogramInit(ptr noundef %0, i32 noundef %1, i32 noundef %2) #0 {
  %4 = alloca ptr, align 8
  %5 = alloca i32, align 4
  %6 = alloca i32, align 4
  store ptr %0, ptr %4, align 8, !tbaa !3
  store i32 %1, ptr %5, align 4, !tbaa !14
  store i32 %2, ptr %6, align 4, !tbaa !14
  %7 = load i32, ptr %5, align 4, !tbaa !14
  %8 = load ptr, ptr %4, align 8, !tbaa !3
  %9 = getelementptr inbounds nuw %struct.VP8LHistogram, ptr %8, i32 0, i32 5
  store i32 %7, ptr %9, align 8, !tbaa !21
  %10 = load i32, ptr %6, align 4, !tbaa !14
  %11 = icmp ne i32 %10, 0
  br i1 %11, label %12, label %14

12:                                               ; preds = %3
  %13 = load ptr, ptr %4, align 8, !tbaa !3
  call void @HistogramClear(ptr noundef %13)
  br label %28

14:                                               ; preds = %3
  %15 = load ptr, ptr %4, align 8, !tbaa !3
  %16 = getelementptr inbounds nuw %struct.VP8LHistogram, ptr %15, i32 0, i32 6
  store i32 0, ptr %16, align 4, !tbaa !23
  %17 = load ptr, ptr %4, align 8, !tbaa !3
  %18 = getelementptr inbounds nuw %struct.VP8LHistogram, ptr %17, i32 0, i32 7
  store i64 0, ptr %18, align 8, !tbaa !24
  %19 = load ptr, ptr %4, align 8, !tbaa !3
  %20 = getelementptr inbounds nuw %struct.VP8LHistogram, ptr %19, i32 0, i32 8
  store i64 0, ptr %20, align 8, !tbaa !25
  %21 = load ptr, ptr %4, align 8, !tbaa !3
  %22 = getelementptr inbounds nuw %struct.VP8LHistogram, ptr %21, i32 0, i32 9
  store i64 0, ptr %22, align 8, !tbaa !26
  %23 = load ptr, ptr %4, align 8, !tbaa !3
  %24 = getelementptr inbounds nuw %struct.VP8LHistogram, ptr %23, i32 0, i32 10
  store i64 0, ptr %24, align 8, !tbaa !27
  %25 = load ptr, ptr %4, align 8, !tbaa !3
  %26 = getelementptr inbounds nuw %struct.VP8LHistogram, ptr %25, i32 0, i32 11
  %27 = getelementptr inbounds [5 x i8], ptr %26, i64 0, i64 0
  call void @llvm.memset.p0.i64(ptr align 8 %27, i8 0, i64 5, i1 false)
  br label %28

28:                                               ; preds = %14, %12
  ret void
}

; Function Attrs: nounwind uwtable
define internal void @HistogramSetResetPointers(ptr noundef %0, i32 noundef %1) #0 {
  %3 = alloca ptr, align 8
  %4 = alloca i32, align 4
  %5 = alloca i32, align 4
  %6 = alloca i32, align 4
  %7 = alloca ptr, align 8
  store ptr %0, ptr %3, align 8, !tbaa !3
  store i32 %1, ptr %4, align 4, !tbaa !14
  call void @llvm.lifetime.start.p0(i64 4, ptr %5) #7
  call void @llvm.lifetime.start.p0(i64 4, ptr %6) #7
  %8 = load i32, ptr %4, align 4, !tbaa !14
  %9 = call i32 @GetHistogramSize(i32 noundef %8)
  store i32 %9, ptr %6, align 4, !tbaa !14
  call void @llvm.lifetime.start.p0(i64 8, ptr %7) #7
  %10 = load ptr, ptr %3, align 8, !tbaa !3
  %11 = getelementptr inbounds nuw %struct.VP8LHistogramSet, ptr %10, i32 0, i32 2
  %12 = load ptr, ptr %11, align 8, !tbaa !31
  store ptr %12, ptr %7, align 8, !tbaa !28
  %13 = load ptr, ptr %3, align 8, !tbaa !3
  %14 = getelementptr inbounds nuw %struct.VP8LHistogramSet, ptr %13, i32 0, i32 1
  %15 = load i32, ptr %14, align 4, !tbaa !33
  %16 = sext i32 %15 to i64
  %17 = mul i64 %16, 8
  %18 = load ptr, ptr %7, align 8, !tbaa !28
  %19 = getelementptr inbounds nuw i8, ptr %18, i64 %17
  store ptr %19, ptr %7, align 8, !tbaa !28
  store i32 0, ptr %5, align 4, !tbaa !14
  br label %20

20:                                               ; preds = %53, %2
  %21 = load i32, ptr %5, align 4, !tbaa !14
  %22 = load ptr, ptr %3, align 8, !tbaa !3
  %23 = getelementptr inbounds nuw %struct.VP8LHistogramSet, ptr %22, i32 0, i32 1
  %24 = load i32, ptr %23, align 4, !tbaa !33
  %25 = icmp slt i32 %21, %24
  br i1 %25, label %26, label %56

26:                                               ; preds = %20
  %27 = load ptr, ptr %7, align 8, !tbaa !28
  %28 = ptrtoint ptr %27 to i64
  %29 = add i64 %28, 31
  %30 = and i64 %29, -32
  %31 = inttoptr i64 %30 to ptr
  store ptr %31, ptr %7, align 8, !tbaa !28
  %32 = load ptr, ptr %7, align 8, !tbaa !28
  %33 = load ptr, ptr %3, align 8, !tbaa !3
  %34 = getelementptr inbounds nuw %struct.VP8LHistogramSet, ptr %33, i32 0, i32 2
  %35 = load ptr, ptr %34, align 8, !tbaa !31
  %36 = load i32, ptr %5, align 4, !tbaa !14
  %37 = sext i32 %36 to i64
  %38 = getelementptr inbounds ptr, ptr %35, i64 %37
  store ptr %32, ptr %38, align 8, !tbaa !3
  %39 = load ptr, ptr %7, align 8, !tbaa !28
  %40 = getelementptr inbounds nuw i8, ptr %39, i64 3288
  %41 = load ptr, ptr %3, align 8, !tbaa !3
  %42 = getelementptr inbounds nuw %struct.VP8LHistogramSet, ptr %41, i32 0, i32 2
  %43 = load ptr, ptr %42, align 8, !tbaa !31
  %44 = load i32, ptr %5, align 4, !tbaa !14
  %45 = sext i32 %44 to i64
  %46 = getelementptr inbounds ptr, ptr %43, i64 %45
  %47 = load ptr, ptr %46, align 8, !tbaa !3
  %48 = getelementptr inbounds nuw %struct.VP8LHistogram, ptr %47, i32 0, i32 0
  store ptr %40, ptr %48, align 8, !tbaa !16
  %49 = load i32, ptr %6, align 4, !tbaa !14
  %50 = load ptr, ptr %7, align 8, !tbaa !28
  %51 = sext i32 %49 to i64
  %52 = getelementptr inbounds i8, ptr %50, i64 %51
  store ptr %52, ptr %7, align 8, !tbaa !28
  br label %53

53:                                               ; preds = %26
  %54 = load i32, ptr %5, align 4, !tbaa !14
  %55 = add nsw i32 %54, 1
  store i32 %55, ptr %5, align 4, !tbaa !14
  br label %20, !llvm.loop !36

56:                                               ; preds = %20
  call void @llvm.lifetime.end.p0(i64 8, ptr %7) #7
  call void @llvm.lifetime.end.p0(i64 4, ptr %6) #7
  call void @llvm.lifetime.end.p0(i64 4, ptr %5) #7
  ret void
}

; Function Attrs: nounwind uwtable
define internal i64 @HistogramSetTotalSize(i32 noundef %0, i32 noundef %1) #0 {
  %3 = alloca i32, align 4
  %4 = alloca i32, align 4
  %5 = alloca i32, align 4
  store i32 %0, ptr %3, align 4, !tbaa !14
  store i32 %1, ptr %4, align 4, !tbaa !14
  call void @llvm.lifetime.start.p0(i64 4, ptr %5) #7
  %6 = load i32, ptr %4, align 4, !tbaa !14
  %7 = call i32 @GetHistogramSize(i32 noundef %6)
  store i32 %7, ptr %5, align 4, !tbaa !14
  %8 = load i32, ptr %3, align 4, !tbaa !14
  %9 = sext i32 %8 to i64
  %10 = load i32, ptr %5, align 4, !tbaa !14
  %11 = sext i32 %10 to i64
  %12 = add i64 8, %11
  %13 = add i64 %12, 31
  %14 = mul i64 %9, %13
  %15 = add i64 16, %14
  call void @llvm.lifetime.end.p0(i64 4, ptr %5) #7
  ret i64 %15
}

; Function Attrs: nounwind uwtable
define hidden ptr @VP8LAllocateHistogramSet(i32 noundef %0, i32 noundef %1) #0 {
  %3 = alloca ptr, align 8
  %4 = alloca i32, align 4
  %5 = alloca i32, align 4
  %6 = alloca i32, align 4
  %7 = alloca ptr, align 8
  %8 = alloca i64, align 8
  %9 = alloca ptr, align 8
  %10 = alloca i32, align 4
  store i32 %0, ptr %4, align 4, !tbaa !14
  store i32 %1, ptr %5, align 4, !tbaa !14
  call void @llvm.lifetime.start.p0(i64 4, ptr %6) #7
  call void @llvm.lifetime.start.p0(i64 8, ptr %7) #7
  call void @llvm.lifetime.start.p0(i64 8, ptr %8) #7
  %11 = load i32, ptr %4, align 4, !tbaa !14
  %12 = load i32, ptr %5, align 4, !tbaa !14
  %13 = call i64 @HistogramSetTotalSize(i32 noundef %11, i32 noundef %12)
  store i64 %13, ptr %8, align 8, !tbaa !30
  call void @llvm.lifetime.start.p0(i64 8, ptr %9) #7
  %14 = load i64, ptr %8, align 8, !tbaa !30
  %15 = call ptr @WebPSafeMalloc(i64 noundef %14, i64 noundef 1)
  store ptr %15, ptr %9, align 8, !tbaa !28
  %16 = load ptr, ptr %9, align 8, !tbaa !28
  %17 = icmp eq ptr %16, null
  br i1 %17, label %18, label %19

18:                                               ; preds = %2
  store ptr null, ptr %3, align 8
  store i32 1, ptr %10, align 4
  br label %52

19:                                               ; preds = %2
  %20 = load ptr, ptr %9, align 8, !tbaa !28
  store ptr %20, ptr %7, align 8, !tbaa !3
  %21 = load ptr, ptr %9, align 8, !tbaa !28
  %22 = getelementptr inbounds nuw i8, ptr %21, i64 16
  store ptr %22, ptr %9, align 8, !tbaa !28
  %23 = load ptr, ptr %9, align 8, !tbaa !28
  %24 = load ptr, ptr %7, align 8, !tbaa !3
  %25 = getelementptr inbounds nuw %struct.VP8LHistogramSet, ptr %24, i32 0, i32 2
  store ptr %23, ptr %25, align 8, !tbaa !31
  %26 = load i32, ptr %4, align 4, !tbaa !14
  %27 = load ptr, ptr %7, align 8, !tbaa !3
  %28 = getelementptr inbounds nuw %struct.VP8LHistogramSet, ptr %27, i32 0, i32 1
  store i32 %26, ptr %28, align 4, !tbaa !33
  %29 = load i32, ptr %4, align 4, !tbaa !14
  %30 = load ptr, ptr %7, align 8, !tbaa !3
  %31 = getelementptr inbounds nuw %struct.VP8LHistogramSet, ptr %30, i32 0, i32 0
  store i32 %29, ptr %31, align 8, !tbaa !34
  %32 = load ptr, ptr %7, align 8, !tbaa !3
  %33 = load i32, ptr %5, align 4, !tbaa !14
  call void @HistogramSetResetPointers(ptr noundef %32, i32 noundef %33)
  store i32 0, ptr %6, align 4, !tbaa !14
  br label %34

34:                                               ; preds = %47, %19
  %35 = load i32, ptr %6, align 4, !tbaa !14
  %36 = load i32, ptr %4, align 4, !tbaa !14
  %37 = icmp slt i32 %35, %36
  br i1 %37, label %38, label %50

38:                                               ; preds = %34
  %39 = load ptr, ptr %7, align 8, !tbaa !3
  %40 = getelementptr inbounds nuw %struct.VP8LHistogramSet, ptr %39, i32 0, i32 2
  %41 = load ptr, ptr %40, align 8, !tbaa !31
  %42 = load i32, ptr %6, align 4, !tbaa !14
  %43 = sext i32 %42 to i64
  %44 = getelementptr inbounds ptr, ptr %41, i64 %43
  %45 = load ptr, ptr %44, align 8, !tbaa !3
  %46 = load i32, ptr %5, align 4, !tbaa !14
  call void @VP8LHistogramInit(ptr noundef %45, i32 noundef %46, i32 noundef 0)
  br label %47

47:                                               ; preds = %38
  %48 = load i32, ptr %6, align 4, !tbaa !14
  %49 = add nsw i32 %48, 1
  store i32 %49, ptr %6, align 4, !tbaa !14
  br label %34, !llvm.loop !35

50:                                               ; preds = %34
  %51 = load ptr, ptr %7, align 8, !tbaa !3
  store ptr %51, ptr %3, align 8
  store i32 1, ptr %10, align 4
  br label %52

52:                                               ; preds = %50, %18
  call void @llvm.lifetime.end.p0(i64 8, ptr %9) #7
  call void @llvm.lifetime.end.p0(i64 8, ptr %8) #7
  call void @llvm.lifetime.end.p0(i64 8, ptr %7) #7
  call void @llvm.lifetime.end.p0(i64 4, ptr %6) #7
  %53 = load ptr, ptr %3, align 8
  ret ptr %53
}