; Function Attrs: nounwind uwtable
define hidden ptr @VP8LAllocateHistogramSet(i32 noundef %0, i32 noundef %1) local_unnamed_addr #0 {
  %3 = icmp sgt i32 %1, 0
  %4 = shl i32 4, %1
  %5 = add nuw i32 %4, 4408
  %6 = select i1 %3, i32 %5, i32 4408
  %7 = sext i32 %0 to i64
  %8 = sext i32 %6 to i64
  %9 = add nsw i64 %8, 39
  %10 = mul nsw i64 %9, %7
  %11 = add nsw i64 %10, 16
  %12 = tail call ptr @WebPSafeMalloc(i64 noundef %11, i64 noundef 1) #10
  %13 = icmp eq ptr %12, null
  br i1 %13, label %.loopexit, label %14

14:                                               ; preds = %2
  %15 = getelementptr inbounds nuw i8, ptr %12, i64 16
  %16 = getelementptr inbounds nuw i8, ptr %12, i64 8
  store ptr %15, ptr %16, align 8, !tbaa !25
  %17 = getelementptr inbounds nuw i8, ptr %12, i64 4
  store i32 %0, ptr %17, align 4, !tbaa !27
  store i32 %0, ptr %12, align 8, !tbaa !28
  %18 = icmp sgt i32 %0, 0
  br i1 %18, label %.lr.ph.i, label %.loopexit

.lr.ph.i:                                         ; preds = %14
  %19 = zext nneg i32 %0 to i64
  %20 = shl nuw nsw i64 %19, 3
  %21 = getelementptr inbounds nuw i8, ptr %15, i64 %20
  br label %22

22:                                               ; preds = %22, %.lr.ph.i
  %23 = phi ptr [ %15, %.lr.ph.i ], [ %30, %22 ]
  %indvars.iv.i = phi i64 [ 0, %.lr.ph.i ], [ %indvars.iv.next.i, %22 ]
  %.017.i = phi ptr [ %21, %.lr.ph.i ], [ %33, %22 ]
  %24 = ptrtoint ptr %.017.i to i64
  %25 = add i64 %24, 31
  %26 = and i64 %25, -32
  %27 = inttoptr i64 %26 to ptr
  %28 = getelementptr inbounds nuw ptr, ptr %23, i64 %indvars.iv.i
  store ptr %27, ptr %28, align 8, !tbaa !29
  %29 = getelementptr inbounds nuw i8, ptr %27, i64 3288
  %30 = load ptr, ptr %16, align 8, !tbaa !25
  %31 = getelementptr inbounds nuw ptr, ptr %30, i64 %indvars.iv.i
  %32 = load ptr, ptr %31, align 8, !tbaa !29
  store ptr %29, ptr %32, align 8, !tbaa !18
  %33 = getelementptr inbounds i8, ptr %27, i64 %8
  %indvars.iv.next.i = add nuw nsw i64 %indvars.iv.i, 1
  %exitcond.not.i = icmp eq i64 %indvars.iv.next.i, %19
  br i1 %exitcond.not.i, label %.lr.ph.preheader, label %22, !llvm.loop !30

.lr.ph.preheader:                                 ; preds = %22
  %wide.trip.count = zext nneg i32 %0 to i64
  br label %.lr.ph

.lr.ph:                                           ; preds = %.lr.ph.preheader, %.lr.ph
  %indvars.iv = phi i64 [ 0, %.lr.ph.preheader ], [ %indvars.iv.next, %.lr.ph ]
  %34 = load ptr, ptr %16, align 8, !tbaa !25
  %35 = getelementptr inbounds nuw ptr, ptr %34, i64 %indvars.iv
  %36 = load ptr, ptr %35, align 8, !tbaa !29
  %37 = getelementptr inbounds nuw i8, ptr %36, i64 3240
  store i32 %1, ptr %37, align 8, !tbaa !24
  %38 = getelementptr inbounds nuw i8, ptr %36, i64 3244
  tail call void @llvm.memset.p0.i64(ptr noundef nonnull align 4 dereferenceable(41) %38, i8 0, i64 41, i1 false)
  %indvars.iv.next = add nuw nsw i64 %indvars.iv, 1
  %exitcond.not = icmp eq i64 %indvars.iv.next, %wide.trip.count
  br i1 %exitcond.not, label %.loopexit, label %.lr.ph, !llvm.loop !31

.loopexit:                                        ; preds = %.lr.ph, %14, %2
  ret ptr %12
}